(lp0
S'poi'
p1
aS'salary'
p2
aS'total_payments'
p3
aS'exercised_stock_options'
p4
aS'bonus'
p5
aS'total_stock_value'
p6
aS'deferred_income'
p7
aS'shared_receipt_with_poi'
p8
aS'from_messages'
p9
ag8
aS'fraction_of_messages_to_poi'
p10
aS'loan_advances'
p11
a.